target datalayout = "e-m:e-p270:32:32-p271:32:32-p272:64:64-i64:64-i128:128-f80:128-n8:16:32:64-S128"
target triple = "x86_64-pc-linux-gnu"

%struct.SDL_VideoDevice = type { ptr, ptr, ptr, ptr, ptr, ptr, ptr, ptr, ptr, ptr, ptr, ptr, ptr, ptr, ptr, ptr, ptr, ptr, ptr, ptr, ptr, ptr, ptr, ptr, ptr, ptr, ptr, ptr, ptr, ptr, ptr, ptr, ptr, ptr, ptr, ptr, ptr, ptr, ptr, ptr, ptr, ptr, ptr, ptr, ptr, ptr, ptr, ptr, ptr, ptr, ptr, ptr, ptr, ptr, ptr, ptr, ptr, ptr, ptr, ptr, ptr, ptr, ptr, ptr, ptr, ptr, ptr, ptr, ptr, ptr, ptr, ptr, ptr, ptr, ptr, ptr, ptr, ptr, ptr, ptr, ptr, ptr, ptr, ptr, ptr, ptr, ptr, ptr, ptr, ptr, ptr, ptr, ptr, ptr, ptr, ptr, ptr, i64, i8, i8, i8, ptr, i32, ptr, %struct.SDL_Rect, ptr, ptr, i32, ptr, ptr, ptr, ptr, i64, ptr, i8, i32, i32, %struct.anon, ptr, ptr, ptr, ptr, ptr, ptr, %struct.SDL_AtomicInt, %struct.SDL_AtomicInt, i8, %struct.anon.0, ptr, ptr, ptr, ptr, ptr }
%struct.SDL_Rect = type { i32, i32, i32, i32 }
%struct.anon = type { i32, i32, i32, i32, i32, i32, i32, i32, i32, i32, i32, i32, i32, i32, i32, i32, i32, i32, i32, i32, i32, i32, i32, i32, i32, i32, i32, i32, i32, [256 x i8], ptr }
%struct.SDL_AtomicInt = type { i32 }
%struct.anon.0 = type { ptr, ptr, i32, [256 x i8], ptr }
%struct.SDL_VideoData = type { ptr, ptr, i32, ptr, i64, i32, ptr, i32, i64, i64, %struct.X11_ClipboardData, %struct.X11_ClipboardData, ptr, i64, %struct.X11_SettingsData, i8, %struct.anon.1, [256 x i32], i8, i8, i8, i64, i8, %struct.SDL_Point, i32, ptr, i32, i8, i32, %struct.anon.2, i8, i64, ptr, ptr, i8, i8, i8 }
%struct.X11_ClipboardData = type { ptr, ptr, ptr, i64, i32 }
%struct.X11_SettingsData = type { ptr }
%struct.anon.1 = type { i64, i64, i64, i64, i64, i64, i64, i64, i64, i64, i64, i64, i64, i64, i64, i64, i64, i64, i64, i64, i64, i64, i64, i64, i64, i64, i64, i64, i64, i64, i64, i64, i64, i64, i64, i64, i64, i64, i64, i64, i64, i64, i64, i64, i64, i64, i64, i64, i64, i64, i64, i64, i64 }
%struct.SDL_Point = type { i32, i32 }
%struct.anon.2 = type { ptr, i32, i32, i32, i16, i32, i32 }
%struct.XWindowAttributes = type { i32, i32, i32, i32, i32, i32, ptr, i64, i32, i32, i32, i32, i64, i64, i32, i64, i32, i32, i64, i64, i64, i32, ptr }
%struct.SDL_Window = type { i32, ptr, ptr, i32, i32, i32, i32, i32, i32, i32, i32, float, float, i32, i32, i64, i64, float, i8, i8, i32, i32, %struct.SDL_Rect, %struct.SDL_Rect, %struct.SDL_Rect, i8, i8, i8, %struct.SDL_DisplayMode, %struct.SDL_DisplayMode, %struct.SDL_HDROutputProperties, float, ptr, i8, i8, i8, i8, i8, i8, i8, i8, i8, i32, i32, i32, i32, %struct.SDL_Rect, i32, i8, %struct.SDL_Rect, i32, %struct.SDL_Rect, ptr, ptr, i32, float, i32, i32, ptr, ptr, ptr, ptr, ptr, ptr, ptr, ptr, ptr }
%struct.SDL_DisplayMode = type { i32, i32, i32, i32, float, float, i32, i32, ptr }
%struct.SDL_HDROutputProperties = type { float, float }
%struct.SDL_DisplayData = type { i32, ptr, i32, i32, i32, i32, i64, i8, i64, [16 x i8] }
%struct.anon.4 = type { ptr, ptr, i32, i32, i32, i32, ptr, i64, i64, i64, i32, ptr, i32, i32, i32, i32, i32, ptr, i32, i32, ptr, ptr, i32, i64, i64, ptr, ptr, ptr, ptr, i32, ptr, ptr, ptr, i32, i32, ptr, i64, i64, i32, i32, ptr, ptr, i32, ptr }
%struct.Screen = type { ptr, ptr, i64, i32, i32, i32, i32, i32, ptr, i32, ptr, ptr, i64, i64, i64, i32, i32, i32, i32, i64 }
%struct.SDL_WindowData = type { ptr, i64, ptr, i64, i8, %struct.XShmSegmentInfo, ptr, ptr, ptr, i8, i32, i32, i32, i32, i8, i8, i8, i64, i32, i64, i8, %struct.SDL_Point, %struct.XConfigureEvent, %struct.XConfigureEvent, ptr, i64, i64, i64, i8, i64, ptr, i8, [4 x i64], %struct.SDL_Rect, i64, %struct._XSyncValue, i8, %struct.SDL_Rect, %struct.SDL_DisplayMode, i32, i32, i8, i8, i8, i8, i8, i8, i8, i8, i32, %struct.XPoint, ptr, ptr, i32, i32, i8 }
%struct.XShmSegmentInfo = type { i64, i32, ptr, i32 }
%struct.XConfigureEvent = type { i32, i64, i32, ptr, i64, i64, i32, i32, i32, i32, i32, i64, i32 }
%struct._XSyncValue = type { i32, i32 }
%struct.XPoint = type { i16, i16 }
%union._XEvent = type { [24 x i64] }
%struct.XAnyEvent = type { i32, i64, i32, ptr, i64 }
%struct.XClientMessageEvent = type { i32, i64, i32, ptr, i64, i64, i32, %union.anon }
%union.anon = type { [5 x i64] }

@X11_XGetWindowAttributes = external global ptr, align 8
@X11_XFlush = external global ptr, align 8
@X11_XSendEvent = external global ptr, align 8
@.str.46 = private unnamed_addr constant [15 x i8] c"Invalid window\00", align 1
@.str.47 = private unnamed_addr constant [27 x i8] c"Invalid window driver data\00", align 1

; Function Attrs: nounwind uwtable
define internal zeroext i1 @X11_IsWindowMapped(ptr noundef %0, ptr noundef %1) #0 {
  %3 = alloca i1, align 1
  %4 = alloca ptr, align 8
  %5 = alloca ptr, align 8
  %6 = alloca ptr, align 8
  %7 = alloca ptr, align 8
  %8 = alloca %struct.XWindowAttributes, align 8
  %9 = alloca i32, align 4
  store ptr %0, ptr %4, align 8
  store ptr %1, ptr %5, align 8
  call void @llvm.lifetime.start.p0(i64 8, ptr %6) #7
  %10 = load ptr, ptr %5, align 8
  %11 = getelementptr inbounds nuw %struct.SDL_Window, ptr %10, i32 0, i32 59
  %12 = load ptr, ptr %11, align 8
  store ptr %12, ptr %6, align 8
  call void @llvm.lifetime.start.p0(i64 8, ptr %7) #7
  %13 = load ptr, ptr %4, align 8
  %14 = getelementptr inbounds nuw %struct.SDL_VideoDevice, ptr %13, i32 0, i32 128
  %15 = load ptr, ptr %14, align 8
  store ptr %15, ptr %7, align 8
  call void @llvm.lifetime.start.p0(i64 136, ptr %8) #7
  %16 = load ptr, ptr @X11_XGetWindowAttributes, align 8
  %17 = load ptr, ptr %7, align 8
  %18 = getelementptr inbounds nuw %struct.SDL_VideoData, ptr %17, i32 0, i32 0
  %19 = load ptr, ptr %18, align 8
  %20 = load ptr, ptr %6, align 8
  %21 = getelementptr inbounds nuw %struct.SDL_WindowData, ptr %20, i32 0, i32 1
  %22 = load i64, ptr %21, align 8
  %23 = call i32 %16(ptr noundef %19, i64 noundef %22, ptr noundef %8)
  %24 = getelementptr inbounds nuw %struct.XWindowAttributes, ptr %8, i32 0, i32 17
  %25 = load i32, ptr %24, align 4
  %26 = icmp ne i32 %25, 0
  br i1 %26, label %27, label %28

27:                                               ; preds = %2
  store i1 true, ptr %3, align 1
  store i32 1, ptr %9, align 4
  br label %29

28:                                               ; preds = %2
  store i1 false, ptr %3, align 1
  store i32 1, ptr %9, align 4
  br label %29

29:                                               ; preds = %28, %27
  call void @llvm.lifetime.end.p0(i64 136, ptr %8) #7
  call void @llvm.lifetime.end.p0(i64 8, ptr %7) #7
  call void @llvm.lifetime.end.p0(i64 8, ptr %6) #7
  %30 = load i1, ptr %3, align 1
  ret i1 %30
}

; Function Attrs: nounwind uwtable
define internal zeroext i1 @X11_SetWindowActive(ptr noundef %0, ptr noundef %1) #0 {
  %3 = alloca i1, align 1
  %4 = alloca ptr, align 8
  %5 = alloca ptr, align 8
  %6 = alloca ptr, align 8
  %7 = alloca ptr, align 8
  %8 = alloca ptr, align 8
  %9 = alloca i64, align 8
  %10 = alloca %union._XEvent, align 8
  store ptr %0, ptr %4, align 8
  store ptr %1, ptr %5, align 8
  %11 = load ptr, ptr %5, align 8
  %12 = icmp ne ptr %11, null
  br i1 %12, label %15, label %13

13:                                               ; preds = %2
  %14 = call zeroext i1 (ptr, ...) @SDL_SetError_REAL(ptr noundef @.str.46)
  store i1 %14, ptr %3, align 1
  br label %77

15:                                               ; preds = %2
  %16 = load ptr, ptr %5, align 8
  %17 = getelementptr inbounds nuw %struct.SDL_Window, ptr %16, i32 0, i32 59
  %18 = load ptr, ptr %17, align 8
  %19 = icmp ne ptr %18, null
  br i1 %19, label %22, label %20

20:                                               ; preds = %15
  %21 = call zeroext i1 (ptr, ...) @SDL_SetError_REAL(ptr noundef @.str.47)
  store i1 %21, ptr %3, align 1
  br label %77

22:                                               ; preds = %15
  call void @llvm.lifetime.start.p0(i64 8, ptr %6) #7
  %23 = load ptr, ptr %5, align 8
  %24 = getelementptr inbounds nuw %struct.SDL_Window, ptr %23, i32 0, i32 59
  %25 = load ptr, ptr %24, align 8
  store ptr %25, ptr %6, align 8
  call void @llvm.lifetime.start.p0(i64 8, ptr %7) #7
  %26 = load ptr, ptr %5, align 8
  %27 = call ptr @SDL_GetDisplayDriverDataForWindow(ptr noundef %26)
  store ptr %27, ptr %7, align 8
  call void @llvm.lifetime.start.p0(i64 8, ptr %8) #7
  %28 = load ptr, ptr %6, align 8
  %29 = getelementptr inbounds nuw %struct.SDL_WindowData, ptr %28, i32 0, i32 24
  %30 = load ptr, ptr %29, align 8
  %31 = getelementptr inbounds nuw %struct.SDL_VideoData, ptr %30, i32 0, i32 0
  %32 = load ptr, ptr %31, align 8
  store ptr %32, ptr %8, align 8
  call void @llvm.lifetime.start.p0(i64 8, ptr %9) #7
  %33 = load ptr, ptr %6, align 8
  %34 = getelementptr inbounds nuw %struct.SDL_WindowData, ptr %33, i32 0, i32 24
  %35 = load ptr, ptr %34, align 8
  %36 = getelementptr inbounds nuw %struct.SDL_VideoData, ptr %35, i32 0, i32 16
  %37 = getelementptr inbounds nuw %struct.anon.1, ptr %36, i32 0, i32 26
  %38 = load i64, ptr %37, align 8
  store i64 %38, ptr %9, align 8
  %39 = load ptr, ptr %4, align 8
  %40 = load ptr, ptr %5, align 8
  %41 = call zeroext i1 @X11_IsWindowMapped(ptr noundef %39, ptr noundef %40)
  br i1 %41, label %42, label %76

42:                                               ; preds = %22
  call void @llvm.lifetime.start.p0(i64 192, ptr %10) #7
  call void @llvm.memset.p0.i64(ptr align 8 %10, i8 0, i64 192, i1 false)
  %43 = getelementptr inbounds nuw %struct.XAnyEvent, ptr %10, i32 0, i32 0
  store i32 33, ptr %43, align 8
  %44 = load i64, ptr %9, align 8
  %45 = getelementptr inbounds nuw %struct.XClientMessageEvent, ptr %10, i32 0, i32 5
  store i64 %44, ptr %45, align 8
  %46 = getelementptr inbounds nuw %struct.XClientMessageEvent, ptr %10, i32 0, i32 6
  store i32 32, ptr %46, align 8
  %47 = load ptr, ptr %6, align 8
  %48 = getelementptr inbounds nuw %struct.SDL_WindowData, ptr %47, i32 0, i32 1
  %49 = load i64, ptr %48, align 8
  %50 = getelementptr inbounds nuw %struct.XClientMessageEvent, ptr %10, i32 0, i32 4
  store i64 %49, ptr %50, align 8
  %51 = getelementptr inbounds nuw %struct.XClientMessageEvent, ptr %10, i32 0, i32 7
  %52 = getelementptr inbounds [5 x i64], ptr %51, i64 0, i64 0
  store i64 1, ptr %52, align 8
  %53 = load ptr, ptr %6, align 8
  %54 = getelementptr inbounds nuw %struct.SDL_WindowData, ptr %53, i32 0, i32 25
  %55 = load i64, ptr %54, align 8
  %56 = getelementptr inbounds nuw %struct.XClientMessageEvent, ptr %10, i32 0, i32 7
  %57 = getelementptr inbounds [5 x i64], ptr %56, i64 0, i64 1
  store i64 %55, ptr %57, align 8
  %58 = getelementptr inbounds nuw %struct.XClientMessageEvent, ptr %10, i32 0, i32 7
  %59 = getelementptr inbounds [5 x i64], ptr %58, i64 0, i64 2
  store i64 0, ptr %59, align 8
  %60 = load ptr, ptr @X11_XSendEvent, align 8
  %61 = load ptr, ptr %8, align 8
  %62 = load ptr, ptr %8, align 8
  %63 = getelementptr inbounds nuw %struct.anon.4, ptr %62, i32 0, i32 35
  %64 = load ptr, ptr %63, align 8
  %65 = load ptr, ptr %7, align 8
  %66 = getelementptr inbounds nuw %struct.SDL_DisplayData, ptr %65, i32 0, i32 0
  %67 = load i32, ptr %66, align 8
  %68 = sext i32 %67 to i64
  %69 = getelementptr inbounds %struct.Screen, ptr %64, i64 %68
  %70 = getelementptr inbounds nuw %struct.Screen, ptr %69, i32 0, i32 2
  %71 = load i64, ptr %70, align 8
  %72 = call i32 %60(ptr noundef %61, i64 noundef %71, i32 noundef 0, i64 noundef 1572864, ptr noundef %10)
  %73 = load ptr, ptr @X11_XFlush, align 8
  %74 = load ptr, ptr %8, align 8
  %75 = call i32 %73(ptr noundef %74)
  call void @llvm.lifetime.end.p0(i64 192, ptr %10) #7
  br label %76

76:                                               ; preds = %42, %22
  store i1 true, ptr %3, align 1
  call void @llvm.lifetime.end.p0(i64 8, ptr %9) #7
  call void @llvm.lifetime.end.p0(i64 8, ptr %8) #7
  call void @llvm.lifetime.end.p0(i64 8, ptr %7) #7
  call void @llvm.lifetime.end.p0(i64 8, ptr %6) #7
  br label %77

77:                                               ; preds = %76, %20, %13
  %78 = load i1, ptr %3, align 1
  ret i1 %78
}