; Function Attrs: nounwind uwtable
define internal fastcc void @X11_SetWindowActive(ptr noundef readonly captures(none) %0, ptr noundef %1) unnamed_addr #0 {
  %3 = alloca %struct.XWindowAttributes, align 8
  %4 = alloca %union._XEvent, align 8
  %.not = icmp eq ptr %1, null
  br i1 %.not, label %5, label %7

5:                                                ; preds = %2
  %6 = tail call zeroext i1 (ptr, ...) @SDL_SetError_REAL(ptr noundef nonnull @.str.46) #12
  br label %45

7:                                                ; preds = %2
  %8 = getelementptr inbounds nuw i8, ptr %1, i64 392
  %9 = load ptr, ptr %8, align 8
  %.not17 = icmp eq ptr %9, null
  br i1 %.not17, label %10, label %12

10:                                               ; preds = %7
  %11 = tail call zeroext i1 (ptr, ...) @SDL_SetError_REAL(ptr noundef nonnull @.str.47) #12
  br label %45

12:                                               ; preds = %7
  %13 = tail call ptr @SDL_GetDisplayDriverDataForWindow(ptr noundef nonnull %1) #12
  %14 = getelementptr inbounds nuw i8, ptr %9, i64 336
  %15 = load ptr, ptr %14, align 8
  %16 = load ptr, ptr %15, align 8
  %17 = getelementptr inbounds nuw i8, ptr %15, i64 400
  %18 = load i64, ptr %17, align 8
  %19 = getelementptr i8, ptr %0, i64 1656
  %.val = load ptr, ptr %19, align 8
  %.val18 = load ptr, ptr %8, align 8
  %.val.val = load ptr, ptr %.val, align 8
  %20 = getelementptr i8, ptr %.val18, i64 8
  %.val18.val = load i64, ptr %20, align 8
  call void @llvm.lifetime.start.p0(i64 136, ptr nonnull %3) #12
  %21 = load ptr, ptr @X11_XGetWindowAttributes, align 8
  %22 = call i32 %21(ptr noundef %.val.val, i64 noundef %.val18.val, ptr noundef nonnull %3) #12
  %23 = getelementptr inbounds nuw i8, ptr %3, i64 92
  %24 = load i32, ptr %23, align 4
  %.not.i.not = icmp eq i32 %24, 0
  call void @llvm.lifetime.end.p0(i64 136, ptr nonnull %3) #12
  br i1 %.not.i.not, label %45, label %25

25:                                               ; preds = %12
  call void @llvm.lifetime.start.p0(i64 192, ptr nonnull %4) #12
  call void @llvm.memset.p0.i64(ptr noundef nonnull align 8 dereferenceable(192) %4, i8 0, i64 192, i1 false)
  store i32 33, ptr %4, align 8
  %26 = getelementptr inbounds nuw i8, ptr %4, i64 40
  store i64 %18, ptr %26, align 8
  %27 = getelementptr inbounds nuw i8, ptr %4, i64 48
  store i32 32, ptr %27, align 8
  %28 = getelementptr inbounds nuw i8, ptr %9, i64 8
  %29 = load i64, ptr %28, align 8
  %30 = getelementptr inbounds nuw i8, ptr %4, i64 32
  store i64 %29, ptr %30, align 8
  %31 = getelementptr inbounds nuw i8, ptr %4, i64 56
  store i64 1, ptr %31, align 8
  %32 = getelementptr inbounds nuw i8, ptr %9, i64 344
  %33 = load i64, ptr %32, align 8
  %34 = getelementptr inbounds nuw i8, ptr %4, i64 64
  store i64 %33, ptr %34, align 8
  %35 = load ptr, ptr @X11_XSendEvent, align 8
  %36 = getelementptr inbounds nuw i8, ptr %16, i64 232
  %37 = load ptr, ptr %36, align 8
  %38 = load i32, ptr %13, align 8
  %39 = sext i32 %38 to i64
  %40 = getelementptr inbounds %struct.Screen, ptr %37, i64 %39, i32 2
  %41 = load i64, ptr %40, align 8
  %42 = call i32 %35(ptr noundef %16, i64 noundef %41, i32 noundef 0, i64 noundef 1572864, ptr noundef nonnull %4) #12
  %43 = load ptr, ptr @X11_XFlush, align 8
  %44 = call i32 %43(ptr noundef %16) #12
  call void @llvm.lifetime.end.p0(i64 192, ptr nonnull %4) #12
  br label %45

45:                                               ; preds = %12, %25, %10, %5
  ret void
}